target datalayout = "e-m:e-p270:32:32-p271:32:32-p272:64:64-i64:64-i128:128-f80:128-n8:16:32:64-S128"
target triple = "x86_64-pc-linux-gnu"

%struct.Aig_Obj_t_ = type { %union.anon, ptr, ptr, i64, i32, i32, %union.anon.0 }
%union.anon = type { ptr }
%union.anon.0 = type { ptr }
%struct.Aig_Man_t_ = type { ptr, ptr, ptr, ptr, ptr, ptr, ptr, %struct.Aig_Obj_t_, i32, i32, i32, i32, i32, i32, [7 x i32], i32, ptr, i32, ptr, i32, ptr, i32, i32, i32, ptr, i32, i32, i32, i32, i32, ptr, ptr, i32, ptr, ptr, i32, ptr, ptr, i32, i32, i32, ptr, ptr, ptr, ptr, ptr, ptr, ptr, ptr, ptr, ptr, ptr, ptr, ptr, ptr, i32, ptr, ptr, ptr, ptr, i32, i64, i64, i64, ptr, ptr }
%struct.Vec_Ptr_t_ = type { i32, i32, ptr }

; Function Attrs: nounwind uwtable
define internal void @Vec_PtrSort(ptr noundef %0, ptr noundef %1) #0 {
  %3 = alloca ptr, align 8
  %4 = alloca ptr, align 8
  store ptr %0, ptr %3, align 8, !tbaa !14
  store ptr %1, ptr %4, align 8, !tbaa !32
  %5 = load ptr, ptr %3, align 8, !tbaa !14
  %6 = getelementptr inbounds nuw %struct.Vec_Ptr_t_, ptr %5, i32 0, i32 1
  %7 = load i32, ptr %6, align 4, !tbaa !33
  %8 = icmp slt i32 %7, 2
  br i1 %8, label %9, label %10

9:                                                ; preds = %2
  br label %30

10:                                               ; preds = %2
  %11 = load ptr, ptr %4, align 8, !tbaa !32
  %12 = icmp eq ptr %11, null
  br i1 %12, label %13, label %21

13:                                               ; preds = %10
  %14 = load ptr, ptr %3, align 8, !tbaa !14
  %15 = getelementptr inbounds nuw %struct.Vec_Ptr_t_, ptr %14, i32 0, i32 2
  %16 = load ptr, ptr %15, align 8, !tbaa !36
  %17 = load ptr, ptr %3, align 8, !tbaa !14
  %18 = getelementptr inbounds nuw %struct.Vec_Ptr_t_, ptr %17, i32 0, i32 1
  %19 = load i32, ptr %18, align 4, !tbaa !33
  %20 = sext i32 %19 to i64
  call void @qsort(ptr noundef %16, i64 noundef %20, i64 noundef 8, ptr noundef @Vec_PtrSortComparePtr)
  br label %30

21:                                               ; preds = %10
  %22 = load ptr, ptr %3, align 8, !tbaa !14
  %23 = getelementptr inbounds nuw %struct.Vec_Ptr_t_, ptr %22, i32 0, i32 2
  %24 = load ptr, ptr %23, align 8, !tbaa !36
  %25 = load ptr, ptr %3, align 8, !tbaa !14
  %26 = getelementptr inbounds nuw %struct.Vec_Ptr_t_, ptr %25, i32 0, i32 1
  %27 = load i32, ptr %26, align 4, !tbaa !33
  %28 = sext i32 %27 to i64
  %29 = load ptr, ptr %4, align 8, !tbaa !32
  call void @qsort(ptr noundef %24, i64 noundef %28, i64 noundef 8, ptr noundef %29)
  br label %30

30:                                               ; preds = %9, %21, %13
  ret void
}

; Function Attrs: inlinehint nounwind uwtable
define internal void @Vec_PtrShrink(ptr noundef %0, i32 noundef %1) #1 {
  %3 = alloca ptr, align 8
  %4 = alloca i32, align 4
  store ptr %0, ptr %3, align 8, !tbaa !14
  store i32 %1, ptr %4, align 4, !tbaa !12
  %5 = load i32, ptr %4, align 4, !tbaa !12
  %6 = load ptr, ptr %3, align 8, !tbaa !14
  %7 = getelementptr inbounds nuw %struct.Vec_Ptr_t_, ptr %6, i32 0, i32 1
  store i32 %5, ptr %7, align 4, !tbaa !33
  ret void
}

; Function Attrs: inlinehint nounwind uwtable
define internal void @Vec_PtrWriteEntry(ptr noundef %0, i32 noundef %1, ptr noundef %2) #1 {
  %4 = alloca ptr, align 8
  %5 = alloca i32, align 4
  %6 = alloca ptr, align 8
  store ptr %0, ptr %4, align 8, !tbaa !14
  store i32 %1, ptr %5, align 4, !tbaa !12
  store ptr %2, ptr %6, align 8, !tbaa !32
  %7 = load ptr, ptr %6, align 8, !tbaa !32
  %8 = load ptr, ptr %4, align 8, !tbaa !14
  %9 = getelementptr inbounds nuw %struct.Vec_Ptr_t_, ptr %8, i32 0, i32 2
  %10 = load ptr, ptr %9, align 8, !tbaa !36
  %11 = load i32, ptr %5, align 4, !tbaa !12
  %12 = sext i32 %11 to i64
  %13 = getelementptr inbounds ptr, ptr %10, i64 %12
  store ptr %7, ptr %13, align 8, !tbaa !32
  ret void
}

; Function Attrs: inlinehint nounwind uwtable
define internal i32 @Aig_ObjRefs(ptr noundef %0) #1 {
  %2 = alloca ptr, align 8
  store ptr %0, ptr %2, align 8, !tbaa !10
  %3 = load ptr, ptr %2, align 8, !tbaa !10
  %4 = getelementptr inbounds nuw %struct.Aig_Obj_t_, ptr %3, i32 0, i32 3
  %5 = load i64, ptr %4, align 8
  %6 = lshr i64 %5, 6
  %7 = and i64 %6, 67108863
  %8 = trunc i64 %7 to i32
  ret i32 %8
}

; Function Attrs: inlinehint nounwind uwtable
define internal i32 @Aig_ObjIsTravIdCurrent(ptr noundef %0, ptr noundef %1) #1 {
  %3 = alloca ptr, align 8
  %4 = alloca ptr, align 8
  store ptr %0, ptr %3, align 8, !tbaa !3
  store ptr %1, ptr %4, align 8, !tbaa !10
  %5 = load ptr, ptr %4, align 8, !tbaa !10
  %6 = getelementptr inbounds nuw %struct.Aig_Obj_t_, ptr %5, i32 0, i32 4
  %7 = load i32, ptr %6, align 8, !tbaa !16
  %8 = load ptr, ptr %3, align 8, !tbaa !3
  %9 = getelementptr inbounds nuw %struct.Aig_Man_t_, ptr %8, i32 0, i32 38
  %10 = load i32, ptr %9, align 8, !tbaa !18
  %11 = icmp eq i32 %7, %10
  %12 = zext i1 %11 to i32
  ret i32 %12
}

; Function Attrs: inlinehint nounwind uwtable
define internal ptr @Aig_ManObj(ptr noundef %0, i32 noundef %1) #1 {
  %3 = alloca ptr, align 8
  %4 = alloca i32, align 4
  store ptr %0, ptr %3, align 8, !tbaa !3
  store i32 %1, ptr %4, align 4, !tbaa !12
  %5 = load ptr, ptr %3, align 8, !tbaa !3
  %6 = getelementptr inbounds nuw %struct.Aig_Man_t_, ptr %5, i32 0, i32 4
  %7 = load ptr, ptr %6, align 8, !tbaa !40
  %8 = icmp ne ptr %7, null
  br i1 %8, label %9, label %15

9:                                                ; preds = %2
  %10 = load ptr, ptr %3, align 8, !tbaa !3
  %11 = getelementptr inbounds nuw %struct.Aig_Man_t_, ptr %10, i32 0, i32 4
  %12 = load ptr, ptr %11, align 8, !tbaa !40
  %13 = load i32, ptr %4, align 4, !tbaa !12
  %14 = call ptr @Vec_PtrEntry(ptr noundef %12, i32 noundef %13)
  br label %16

15:                                               ; preds = %2
  br label %16

16:                                               ; preds = %15, %9
  %17 = phi ptr [ %14, %9 ], [ null, %15 ]
  ret ptr %17
}

; Function Attrs: inlinehint nounwind uwtable
define internal i32 @Aig_ObjFanout0Int(ptr noundef %0, i32 noundef %1) #1 {
  %3 = alloca ptr, align 8
  %4 = alloca i32, align 4
  store ptr %0, ptr %3, align 8, !tbaa !3
  store i32 %1, ptr %4, align 4, !tbaa !12
  %5 = load ptr, ptr %3, align 8, !tbaa !3
  %6 = getelementptr inbounds nuw %struct.Aig_Man_t_, ptr %5, i32 0, i32 18
  %7 = load ptr, ptr %6, align 8, !tbaa !39
  %8 = load i32, ptr %4, align 4, !tbaa !12
  %9 = mul nsw i32 5, %8
  %10 = sext i32 %9 to i64
  %11 = getelementptr inbounds i32, ptr %7, i64 %10
  %12 = load i32, ptr %11, align 4, !tbaa !12
  ret i32 %12
}

; Function Attrs: inlinehint nounwind uwtable
define internal i32 @Aig_ObjFanoutNext(ptr noundef %0, i32 noundef %1) #1 {
  %3 = alloca ptr, align 8
  %4 = alloca i32, align 4
  store ptr %0, ptr %3, align 8, !tbaa !3
  store i32 %1, ptr %4, align 4, !tbaa !12
  %5 = load ptr, ptr %3, align 8, !tbaa !3
  %6 = getelementptr inbounds nuw %struct.Aig_Man_t_, ptr %5, i32 0, i32 18
  %7 = load ptr, ptr %6, align 8, !tbaa !39
  %8 = load i32, ptr %4, align 4, !tbaa !12
  %9 = ashr i32 %8, 1
  %10 = mul nsw i32 5, %9
  %11 = add nsw i32 %10, 3
  %12 = load i32, ptr %4, align 4, !tbaa !12
  %13 = and i32 %12, 1
  %14 = add nsw i32 %11, %13
  %15 = sext i32 %14 to i64
  %16 = getelementptr inbounds i32, ptr %7, i64 %15
  %17 = load i32, ptr %16, align 4, !tbaa !12
  ret i32 %17
}

; Function Attrs: inlinehint nounwind uwtable
define internal ptr @Vec_PtrEntry(ptr noundef %0, i32 noundef %1) #1 {
  %3 = alloca ptr, align 8
  %4 = alloca i32, align 4
  store ptr %0, ptr %3, align 8, !tbaa !14
  store i32 %1, ptr %4, align 4, !tbaa !12
  %5 = load ptr, ptr %3, align 8, !tbaa !14
  %6 = getelementptr inbounds nuw %struct.Vec_Ptr_t_, ptr %5, i32 0, i32 2
  %7 = load ptr, ptr %6, align 8, !tbaa !36
  %8 = load i32, ptr %4, align 4, !tbaa !12
  %9 = sext i32 %8 to i64
  %10 = getelementptr inbounds ptr, ptr %7, i64 %9
  %11 = load ptr, ptr %10, align 8, !tbaa !32
  ret ptr %11
}

; Function Attrs: inlinehint nounwind uwtable
define internal i32 @Vec_PtrSize(ptr noundef %0) #1 {
  %2 = alloca ptr, align 8
  store ptr %0, ptr %2, align 8, !tbaa !14
  %3 = load ptr, ptr %2, align 8, !tbaa !14
  %4 = getelementptr inbounds nuw %struct.Vec_Ptr_t_, ptr %3, i32 0, i32 1
  %5 = load i32, ptr %4, align 4, !tbaa !33
  ret i32 %5
}

; Function Attrs: inlinehint nounwind uwtable
define internal void @Vec_PtrClear(ptr noundef %0) #1 {
  %2 = alloca ptr, align 8
  store ptr %0, ptr %2, align 8, !tbaa !14
  %3 = load ptr, ptr %2, align 8, !tbaa !14
  %4 = getelementptr inbounds nuw %struct.Vec_Ptr_t_, ptr %3, i32 0, i32 1
  store i32 0, ptr %4, align 4, !tbaa !33
  ret void
}

; Function Attrs: nounwind uwtable
define void @Cgt_ManDetectFanout(ptr noundef %0, ptr noundef %1, i32 noundef %2, ptr noundef %3) #0 {
  %5 = alloca ptr, align 8
  %6 = alloca ptr, align 8
  %7 = alloca i32, align 4
  %8 = alloca ptr, align 8
  %9 = alloca ptr, align 8
  %10 = alloca i32, align 4
  %11 = alloca i32, align 4
  %12 = alloca i32, align 4
  %13 = alloca i32, align 4
  store ptr %0, ptr %5, align 8, !tbaa !3
  store ptr %1, ptr %6, align 8, !tbaa !10
  store i32 %2, ptr %7, align 4, !tbaa !12
  store ptr %3, ptr %8, align 8, !tbaa !14
  call void @llvm.lifetime.start.p0(i64 8, ptr %9) #9
  call void @llvm.lifetime.start.p0(i64 4, ptr %10) #9
  call void @llvm.lifetime.start.p0(i64 4, ptr %11) #9
  call void @llvm.lifetime.start.p0(i64 4, ptr %12) #9
  call void @llvm.lifetime.start.p0(i64 4, ptr %13) #9
  store i32 -1, ptr %13, align 4, !tbaa !12
  %14 = load ptr, ptr %8, align 8, !tbaa !14
  call void @Vec_PtrClear(ptr noundef %14)
  %15 = load ptr, ptr %5, align 8, !tbaa !3
  call void @Aig_ManIncrementTravId(ptr noundef %15)
  %16 = load ptr, ptr %5, align 8, !tbaa !3
  %17 = load ptr, ptr %6, align 8, !tbaa !10
  %18 = load i32, ptr %7, align 4, !tbaa !12
  %19 = load ptr, ptr %8, align 8, !tbaa !14
  call void @Cgt_ManDetectFanout_rec(ptr noundef %16, ptr noundef %17, i32 noundef %18, ptr noundef %19)
  store i32 0, ptr %11, align 4, !tbaa !12
  store i32 0, ptr %10, align 4, !tbaa !12
  br label %20

20:                                               ; preds = %84, %4
  %21 = load i32, ptr %10, align 4, !tbaa !12
  %22 = load ptr, ptr %8, align 8, !tbaa !14
  %23 = call i32 @Vec_PtrSize(ptr noundef %22)
  %24 = icmp slt i32 %21, %23
  br i1 %24, label %25, label %29

25:                                               ; preds = %20
  %26 = load ptr, ptr %8, align 8, !tbaa !14
  %27 = load i32, ptr %10, align 4, !tbaa !12
  %28 = call ptr @Vec_PtrEntry(ptr noundef %26, i32 noundef %27)
  store ptr %28, ptr %6, align 8, !tbaa !10
  br label %29

29:                                               ; preds = %25, %20
  %30 = phi i1 [ false, %20 ], [ true, %25 ]
  br i1 %30, label %31, label %87

31:                                               ; preds = %29
  store i32 0, ptr %12, align 4, !tbaa !12
  br label %32

32:                                               ; preds = %70, %31
  %33 = load i32, ptr %12, align 4, !tbaa !12
  %34 = load ptr, ptr %6, align 8, !tbaa !10
  %35 = getelementptr inbounds nuw %struct.Aig_Obj_t_, ptr %34, i32 0, i32 3
  %36 = load i64, ptr %35, align 8
  %37 = lshr i64 %36, 6
  %38 = and i64 %37, 67108863
  %39 = trunc i64 %38 to i32
  %40 = icmp slt i32 %33, %39
  br i1 %40, label %41, label %61

41:                                               ; preds = %32
  %42 = load i32, ptr %12, align 4, !tbaa !12
  %43 = icmp ne i32 %42, 0
  br i1 %43, label %44, label %48

44:                                               ; preds = %41
  %45 = load ptr, ptr %5, align 8, !tbaa !3
  %46 = load i32, ptr %13, align 4, !tbaa !12
  %47 = call i32 @Aig_ObjFanoutNext(ptr noundef %45, i32 noundef %46)
  br label %54

48:                                               ; preds = %41
  %49 = load ptr, ptr %5, align 8, !tbaa !3
  %50 = load ptr, ptr %6, align 8, !tbaa !10
  %51 = getelementptr inbounds nuw %struct.Aig_Obj_t_, ptr %50, i32 0, i32 5
  %52 = load i32, ptr %51, align 4, !tbaa !31
  %53 = call i32 @Aig_ObjFanout0Int(ptr noundef %49, i32 noundef %52)
  br label %54

54:                                               ; preds = %48, %44
  %55 = phi i32 [ %47, %44 ], [ %53, %48 ]
  store i32 %55, ptr %13, align 4, !tbaa !12
  br i1 true, label %56, label %61

56:                                               ; preds = %54
  %57 = load ptr, ptr %5, align 8, !tbaa !3
  %58 = load i32, ptr %13, align 4, !tbaa !12
  %59 = ashr i32 %58, 1
  %60 = call ptr @Aig_ManObj(ptr noundef %57, i32 noundef %59)
  store ptr %60, ptr %9, align 8, !tbaa !10
  br label %61

61:                                               ; preds = %56, %54, %32
  %62 = phi i1 [ false, %54 ], [ false, %32 ], [ true, %56 ]
  br i1 %62, label %63, label %73

63:                                               ; preds = %61
  %64 = load ptr, ptr %5, align 8, !tbaa !3
  %65 = load ptr, ptr %9, align 8, !tbaa !10
  %66 = call i32 @Aig_ObjIsTravIdCurrent(ptr noundef %64, ptr noundef %65)
  %67 = icmp ne i32 %66, 0
  br i1 %67, label %69, label %68

68:                                               ; preds = %63
  br label %73

69:                                               ; preds = %63
  br label %70

70:                                               ; preds = %69
  %71 = load i32, ptr %12, align 4, !tbaa !12
  %72 = add nsw i32 %71, 1
  store i32 %72, ptr %12, align 4, !tbaa !12
  br label %32, !llvm.loop !41

73:                                               ; preds = %68, %61
  %74 = load i32, ptr %12, align 4, !tbaa !12
  %75 = load ptr, ptr %6, align 8, !tbaa !10
  %76 = call i32 @Aig_ObjRefs(ptr noundef %75)
  %77 = icmp eq i32 %74, %76
  br i1 %77, label %78, label %79

78:                                               ; preds = %73
  br label %84

79:                                               ; preds = %73
  %80 = load ptr, ptr %8, align 8, !tbaa !14
  %81 = load i32, ptr %11, align 4, !tbaa !12
  %82 = add nsw i32 %81, 1
  store i32 %82, ptr %11, align 4, !tbaa !12
  %83 = load ptr, ptr %6, align 8, !tbaa !10
  call void @Vec_PtrWriteEntry(ptr noundef %80, i32 noundef %81, ptr noundef %83)
  br label %84

84:                                               ; preds = %79, %78
  %85 = load i32, ptr %10, align 4, !tbaa !12
  %86 = add nsw i32 %85, 1
  store i32 %86, ptr %10, align 4, !tbaa !12
  br label %20, !llvm.loop !42

87:                                               ; preds = %29
  %88 = load ptr, ptr %8, align 8, !tbaa !14
  %89 = load i32, ptr %11, align 4, !tbaa !12
  call void @Vec_PtrShrink(ptr noundef %88, i32 noundef %89)
  %90 = load ptr, ptr %8, align 8, !tbaa !14
  call void @Vec_PtrSort(ptr noundef %90, ptr noundef @Aig_ObjCompareIdIncrease)
  call void @llvm.lifetime.end.p0(i64 4, ptr %13) #9
  call void @llvm.lifetime.end.p0(i64 4, ptr %12) #9
  call void @llvm.lifetime.end.p0(i64 4, ptr %11) #9
  call void @llvm.lifetime.end.p0(i64 4, ptr %10) #9
  call void @llvm.lifetime.end.p0(i64 8, ptr %9) #9
  ret void
}