; Function Attrs: nounwind uwtable
define void @Cgt_ManDetectFanout(ptr noundef %0, ptr noundef %1, i32 noundef %2, ptr noundef captures(none) initializes((4, 8)) %3) local_unnamed_addr #0 {
  %5 = getelementptr inbounds nuw i8, ptr %3, i64 4
  store i32 0, ptr %5, align 4, !tbaa !28
  tail call void @Aig_ManIncrementTravId(ptr noundef %0) #13
  tail call void @Cgt_ManDetectFanout_rec(ptr noundef %0, ptr noundef %1, i32 noundef %2, ptr noundef %3)
  %.val42 = load i32, ptr %5, align 4, !tbaa !28
  %6 = icmp sgt i32 %.val42, 0
  br i1 %6, label %.lr.ph56, label %.critedge.thread

.critedge.thread:                                 ; preds = %4
  store i32 0, ptr %5, align 4, !tbaa !28
  br label %Vec_PtrSort.exit

.lr.ph56:                                         ; preds = %4
  %7 = getelementptr i8, ptr %3, i64 8
  %8 = getelementptr i8, ptr %0, i64 176
  %9 = getelementptr i8, ptr %0, i64 32
  %10 = getelementptr i8, ptr %0, i64 312
  %wide.trip.count = zext nneg i32 %.val42 to i64
  br label %11

11:                                               ; preds = %.lr.ph56, %45
  %indvars.iv = phi i64 [ 0, %.lr.ph56 ], [ %indvars.iv.next, %45 ]
  %.055 = phi i32 [ -1, %.lr.ph56 ], [ %.2, %45 ]
  %.03354 = phi i32 [ 0, %.lr.ph56 ], [ %.134, %45 ]
  %.val40 = load ptr, ptr %7, align 8, !tbaa !31
  %12 = getelementptr inbounds nuw ptr, ptr %.val40, i64 %indvars.iv
  %13 = load ptr, ptr %12, align 8, !tbaa !32
  %14 = getelementptr inbounds nuw i8, ptr %13, i64 24
  %15 = load i64, ptr %14, align 8
  %16 = trunc i64 %15 to i32
  %17 = lshr i32 %16, 6
  %.not58 = icmp ult i32 %16, 64
  br i1 %.not58, label %.critedge2, label %.lr.ph

.lr.ph:                                           ; preds = %11
  %18 = getelementptr inbounds nuw i8, ptr %13, i64 36
  %.val41 = load ptr, ptr %9, align 8, !tbaa !34, !nonnull !37, !noundef !37
  %19 = getelementptr i8, ptr %.val41, i64 8
  %.val.i = load ptr, ptr %19, align 8, !tbaa !31
  %.val = load i32, ptr %10, align 8, !tbaa !3
  %umax = tail call i32 @llvm.umax.i32(i32 %17, i32 1)
  %.val39.sink = load ptr, ptr %8, align 8, !tbaa !33
  br label %20

20:                                               ; preds = %.lr.ph, %38
  %.147 = phi i32 [ %.055, %.lr.ph ], [ %32, %38 ]
  %.03246 = phi i32 [ 0, %.lr.ph ], [ %39, %38 ]
  %.not = icmp eq i32 %.03246, 0
  br i1 %.not, label %27, label %21

21:                                               ; preds = %20
  %22 = ashr i32 %.147, 1
  %23 = mul nsw i32 %22, 5
  %24 = and i32 %.147, 1
  %25 = add nuw nsw i32 %24, 3
  %26 = add i32 %25, %23
  br label %Aig_ManObj.exit

27:                                               ; preds = %20
  %28 = load i32, ptr %18, align 4, !tbaa !24
  %29 = mul nsw i32 %28, 5
  br label %Aig_ManObj.exit

Aig_ManObj.exit:                                  ; preds = %27, %21
  %.sink62 = phi i32 [ %29, %27 ], [ %26, %21 ]
  %30 = sext i32 %.sink62 to i64
  %31 = getelementptr inbounds i32, ptr %.val39.sink, i64 %30
  %32 = load i32, ptr %31, align 4, !tbaa !27
  %33 = ashr i32 %32, 1
  %34 = sext i32 %33 to i64
  %35 = getelementptr inbounds ptr, ptr %.val.i, i64 %34
  %36 = load ptr, ptr %35, align 8, !tbaa !32
  %37 = getelementptr i8, ptr %36, i64 32
  %.val37 = load i32, ptr %37, align 8, !tbaa !21
  %.not45 = icmp eq i32 %.val37, %.val
  br i1 %.not45, label %38, label %.critedge2

38:                                               ; preds = %Aig_ManObj.exit
  %39 = add nuw nsw i32 %.03246, 1
  %exitcond.not = icmp eq i32 %39, %umax
  br i1 %exitcond.not, label %.critedge2, label %20, !llvm.loop !38

.critedge2:                                       ; preds = %Aig_ManObj.exit, %38, %11
  %.032.lcssa = phi i32 [ 0, %11 ], [ %umax, %38 ], [ %.03246, %Aig_ManObj.exit ]
  %.2 = phi i32 [ %.055, %11 ], [ %32, %38 ], [ %32, %Aig_ManObj.exit ]
  %40 = icmp eq i32 %.032.lcssa, %17
  br i1 %40, label %45, label %41

41:                                               ; preds = %.critedge2
  %42 = add nsw i32 %.03354, 1
  %43 = sext i32 %.03354 to i64
  %44 = getelementptr inbounds ptr, ptr %.val40, i64 %43
  store ptr %13, ptr %44, align 8, !tbaa !32
  br label %45

45:                                               ; preds = %.critedge2, %41
  %.134 = phi i32 [ %.03354, %.critedge2 ], [ %42, %41 ]
  %indvars.iv.next = add nuw nsw i64 %indvars.iv, 1
  %exitcond60.not = icmp eq i64 %indvars.iv.next, %wide.trip.count
  br i1 %exitcond60.not, label %.critedge, label %11, !llvm.loop !39

.critedge:                                        ; preds = %45
  store i32 %.134, ptr %5, align 4, !tbaa !28
  %46 = icmp slt i32 %.134, 2
  br i1 %46, label %Vec_PtrSort.exit, label %47

47:                                               ; preds = %.critedge
  %48 = getelementptr inbounds nuw i8, ptr %3, i64 8
  %49 = load ptr, ptr %48, align 8, !tbaa !31
  %50 = zext nneg i32 %.134 to i64
  tail call void @qsort(ptr noundef %49, i64 noundef %50, i64 noundef 8, ptr noundef nonnull @Aig_ObjCompareIdIncrease) #13
  br label %Vec_PtrSort.exit

Vec_PtrSort.exit:                                 ; preds = %.critedge.thread, %.critedge, %47
  ret void
}